; Function Attrs: nounwind uwtable
define internal range(i32 0, 2) i32 @pvk2key_set_ctx_params(ptr noundef %0, ptr noundef %1) #0 {
  %3 = alloca ptr, align 8
  call void @llvm.lifetime.start.p0(i64 8, ptr nonnull %3) #6
  %4 = getelementptr inbounds nuw i8, ptr %0, i64 8
  store ptr %4, ptr %3, align 8, !tbaa !22
  %5 = tail call ptr @OSSL_PARAM_locate_const(ptr noundef %1, ptr noundef nonnull @.str.6) #6
  %.not = icmp eq ptr %5, null
  br i1 %.not, label %8, label %6

6:                                                ; preds = %2
  %7 = call i32 @OSSL_PARAM_get_utf8_string(ptr noundef nonnull %5, ptr noundef nonnull %3, i64 noundef 256) #6
  %.not6 = icmp eq i32 %7, 0
  br i1 %.not6, label %9, label %8

8:                                                ; preds = %6, %2
  br label %9

9:                                                ; preds = %6, %8
  %.0 = phi i32 [ 1, %8 ], [ 0, %6 ]
  call void @llvm.lifetime.end.p0(i64 8, ptr nonnull %3) #6
  ret i32 %.0
}